; Function Attrs: mustprogress nounwind uwtable
define void @_ZN8WasmEdge8Executor8Executor8dataDropERNS_7Runtime12StackManagerEj(ptr dead_on_unwind noalias nocapture writable writeonly sret(%"class.cxx20::expected") align 4 %0, ptr noundef nonnull align 8 dereferenceable(408) %1, ptr noundef nonnull align 8 dereferenceable(48) %2, i32 noundef %3) local_unnamed_addr #4 align 2 personality ptr @__gxx_personality_v0 {
  %5 = invoke noundef ptr @_ZNK8WasmEdge8Executor8Executor16getDataInstByIdxERNS_7Runtime12StackManagerEj(ptr noundef nonnull align 8 dereferenceable(408) %1, ptr noundef nonnull align 8 dereferenceable(48) %2, i32 noundef %3)
          to label %6 unwind label %13

6:                                                ; preds = %4
  %7 = icmp ne ptr %5, null
  tail call void @llvm.assume(i1 %7)
  %8 = getelementptr inbounds i8, ptr %5, i64 8
  %9 = load ptr, ptr %8, align 8
  %10 = getelementptr inbounds i8, ptr %5, i64 16
  %11 = load ptr, ptr %10, align 8
  %.not.i.i.i = icmp eq ptr %11, %9
  br i1 %.not.i.i.i, label %_ZN8WasmEdge7Runtime8Instance12DataInstance5clearEv.exit, label %12

12:                                               ; preds = %6
  store ptr %9, ptr %10, align 8
  br label %_ZN8WasmEdge7Runtime8Instance12DataInstance5clearEv.exit

_ZN8WasmEdge7Runtime8Instance12DataInstance5clearEv.exit: ; preds = %6, %12
  store i64 1, ptr %0, align 4
  ret void

13:                                               ; preds = %4
  %14 = landingpad { ptr, i32 }
          catch ptr null
  %15 = extractvalue { ptr, i32 } %14, 0
  tail call void @__clang_call_terminate(ptr %15) #24
  unreachable
}